; Function Attrs: mustprogress uwtable
define dso_local void @_ZN5ImGui26TablePushBackgroundChannelEv() local_unnamed_addr #3 {
  %1 = load ptr, ptr @GImGui, align 8, !tbaa !4
  %2 = getelementptr inbounds nuw i8, ptr %1, i64 4928
  %3 = load ptr, ptr %2, align 8, !tbaa !9
  %4 = getelementptr inbounds nuw i8, ptr %1, i64 8536
  %5 = load ptr, ptr %4, align 8, !tbaa !259
  %6 = getelementptr inbounds nuw i8, ptr %3, i64 592
  %7 = getelementptr inbounds nuw i8, ptr %5, i64 368
  tail call void @llvm.memcpy.p0.p0.i64(ptr noundef nonnull align 8 dereferenceable(16) %7, ptr noundef nonnull align 8 dereferenceable(16) %6, i64 16, i1 false), !tbaa.struct !215
  %8 = getelementptr inbounds nuw i8, ptr %5, i64 336
  %9 = load <4 x float>, ptr %8, align 4
  %.sroa.0.4.vec.insert.i.i = shufflevector <4 x float> %9, <4 x float> poison, <2 x i32> <i32 0, i32 1>
  %.sroa.3.12.vec.insert.i.i = shufflevector <4 x float> %9, <4 x float> poison, <2 x i32> <i32 2, i32 3>
  tail call void @llvm.memcpy.p0.p0.i64(ptr noundef nonnull align 8 dereferenceable(16) %6, ptr noundef nonnull readonly align 4 dereferenceable(16) %8, i64 16, i1 false), !tbaa.struct !215
  %10 = getelementptr inbounds nuw i8, ptr %3, i64 688
  %11 = load ptr, ptr %10, align 8, !tbaa !429
  %12 = getelementptr inbounds nuw i8, ptr %11, i64 96
  store <2 x float> %.sroa.0.4.vec.insert.i.i, ptr %12, align 8
  %.sroa.5.0..sroa_idx.i = getelementptr inbounds nuw i8, ptr %11, i64 104
  store <2 x float> %.sroa.3.12.vec.insert.i.i, ptr %.sroa.5.0..sroa_idx.i, align 8
  %13 = load ptr, ptr %10, align 8, !tbaa !429
  %14 = getelementptr inbounds nuw i8, ptr %13, i64 152
  %15 = getelementptr inbounds nuw i8, ptr %13, i64 160
  %16 = load ptr, ptr %15, align 8, !tbaa !499
  %17 = load i32, ptr %14, align 8, !tbaa !500
  %18 = sext i32 %17 to i64
  %19 = getelementptr %struct.ImVec4, ptr %16, i64 %18
  %20 = getelementptr i8, ptr %19, i64 -16
  store <2 x float> %.sroa.0.4.vec.insert.i.i, ptr %20, align 4
  %.sroa.5.0..sroa_idx2.i = getelementptr i8, ptr %19, i64 -8
  store <2 x float> %.sroa.3.12.vec.insert.i.i, ptr %.sroa.5.0..sroa_idx2.i, align 4
  %21 = getelementptr inbounds nuw i8, ptr %5, i64 416
  %22 = load ptr, ptr %21, align 8, !tbaa !194
  %23 = load ptr, ptr %10, align 8, !tbaa !429
  %24 = getelementptr inbounds nuw i8, ptr %5, i64 562
  %25 = load i16, ptr %24, align 2, !tbaa !432
  %26 = zext i16 %25 to i32
  tail call void @_ZN18ImDrawListSplitter17SetCurrentChannelEP10ImDrawListi(ptr noundef nonnull align 8 dereferenceable(24) %22, ptr noundef %23, i32 noundef %26)
  ret void
}